target datalayout = "e-m:e-p270:32:32-p271:32:32-p272:64:64-i64:64-i128:128-f80:128-n8:16:32:64-S128"
target triple = "x86_64-pc-linux-gnu"

@.str.28 = private unnamed_addr constant [14 x i8] c"%s is not set\00", align 1
@.str.29 = private unnamed_addr constant [29 x i8] c"SDL.iostream.file_descriptor\00", align 1
@.str.30 = private unnamed_addr constant [67 x i8] c"%s doesn't have SDL_PROP_IOSTREAM_FILE_DESCRIPTOR_NUMBER available\00", align 1

; Function Attrs: nounwind uwtable
define internal zeroext i1 @GetStreamFD(i32 noundef %0, ptr noundef %1, ptr noundef %2) #0 {
  %4 = alloca i1, align 1
  %5 = alloca i32, align 4
  %6 = alloca ptr, align 8
  %7 = alloca ptr, align 8
  %8 = alloca ptr, align 8
  %9 = alloca i32, align 4
  %10 = alloca i32, align 4
  store i32 %0, ptr %5, align 4
  store ptr %1, ptr %6, align 8
  store ptr %2, ptr %7, align 8
  call void @llvm.lifetime.start.p0(i64 8, ptr %8) #9
  %11 = load i32, ptr %5, align 4
  %12 = load ptr, ptr %6, align 8
  %13 = call ptr @SDL_GetPointerProperty_REAL(i32 noundef %11, ptr noundef %12, ptr noundef null)
  store ptr %13, ptr %8, align 8
  %14 = load ptr, ptr %8, align 8
  %15 = icmp ne ptr %14, null
  br i1 %15, label %19, label %16

16:                                               ; preds = %3
  %17 = load ptr, ptr %6, align 8
  %18 = call zeroext i1 (ptr, ...) @SDL_SetError_REAL(ptr noundef @.str.28, ptr noundef %17)
  store i1 false, ptr %4, align 1
  store i32 1, ptr %9, align 4
  br label %33

19:                                               ; preds = %3
  call void @llvm.lifetime.start.p0(i64 4, ptr %10) #9
  %20 = load ptr, ptr %8, align 8
  %21 = call i32 @SDL_GetIOProperties_REAL(ptr noundef %20)
  %22 = call i64 @SDL_GetNumberProperty_REAL(i32 noundef %21, ptr noundef @.str.29, i64 noundef -1)
  %23 = trunc i64 %22 to i32
  store i32 %23, ptr %10, align 4
  %24 = load i32, ptr %10, align 4
  %25 = icmp slt i32 %24, 0
  br i1 %25, label %26, label %29

26:                                               ; preds = %19
  %27 = load ptr, ptr %6, align 8
  %28 = call zeroext i1 (ptr, ...) @SDL_SetError_REAL(ptr noundef @.str.30, ptr noundef %27)
  store i1 false, ptr %4, align 1
  store i32 1, ptr %9, align 4
  br label %32

29:                                               ; preds = %19
  %30 = load i32, ptr %10, align 4
  %31 = load ptr, ptr %7, align 8
  store i32 %30, ptr %31, align 4
  store i1 true, ptr %4, align 1
  store i32 1, ptr %9, align 4
  br label %32

32:                                               ; preds = %29, %26
  call void @llvm.lifetime.end.p0(i64 4, ptr %10) #9
  br label %33

33:                                               ; preds = %32, %16
  call void @llvm.lifetime.end.p0(i64 8, ptr %8) #9
  %34 = load i1, ptr %4, align 1
  ret i1 %34
}