; Function Attrs: nounwind uwtable
define internal fastcc noundef zeroext i1 @GetStreamFD(i32 noundef %0, ptr noundef %1, ptr noundef nonnull writeonly captures(none) %2) unnamed_addr #0 {
  %4 = tail call ptr @SDL_GetPointerProperty_REAL(i32 noundef %0, ptr noundef %1, ptr noundef null) #10
  %.not = icmp eq ptr %4, null
  br i1 %.not, label %5, label %7

5:                                                ; preds = %3
  %6 = tail call zeroext i1 (ptr, ...) @SDL_SetError_REAL(ptr noundef nonnull @.str.28, ptr noundef %1) #10
  br label %15

7:                                                ; preds = %3
  %8 = tail call i32 @SDL_GetIOProperties_REAL(ptr noundef nonnull %4) #10
  %9 = tail call i64 @SDL_GetNumberProperty_REAL(i32 noundef %8, ptr noundef nonnull @.str.29, i64 noundef -1) #10
  %10 = trunc i64 %9 to i32
  %11 = icmp sgt i32 %10, -1
  br i1 %11, label %14, label %12

12:                                               ; preds = %7
  %13 = tail call zeroext i1 (ptr, ...) @SDL_SetError_REAL(ptr noundef nonnull @.str.30, ptr noundef %1) #10
  br label %15

14:                                               ; preds = %7
  store i32 %10, ptr %2, align 4
  br label %15

15:                                               ; preds = %12, %14, %5
  %.0 = phi i1 [ false, %5 ], [ true, %14 ], [ false, %12 ]
  ret i1 %.0
}